target datalayout = "e-m:e-p270:32:32-p271:32:32-p272:64:64-i64:64-i128:128-f80:128-n8:16:32:64-S128"
target triple = "x86_64-pc-linux-gnu"

%class.Node = type <{ ptr, ptr, ptr, i32, i32, i32, i32, i32, i32, i32, [4 x i8] }>
%class.GrowableArrayBase = type { i32, i32 }
%class.GrowableArrayMetadata = type { i64 }
%class.VLoopBody = type { ptr, %class.GrowableArray.3, ptr }
%class.GrowableArray.3 = type { %class.GrowableArrayWithAllocator.4, %class.GrowableArrayMetadata }
%class.GrowableArrayWithAllocator.4 = type { %class.GrowableArrayView.5 }
%class.GrowableArrayView.5 = type { %class.GrowableArrayBase, ptr }
%class.GrowableArray.9 = type { %class.GrowableArrayWithAllocator.10, %class.GrowableArrayMetadata }
%class.GrowableArrayWithAllocator.10 = type { %class.GrowableArrayView.11 }
%class.GrowableArrayView.11 = type { %class.GrowableArrayBase, ptr }
%class.VLoopDependencyGraph = type { ptr, ptr, ptr, ptr, ptr, %class.GrowableArray.12, %class.GrowableArray.9 }
%class.GrowableArray.12 = type { %class.GrowableArrayWithAllocator.13, %class.GrowableArrayMetadata }
%class.GrowableArrayWithAllocator.13 = type { %class.GrowableArrayView.14 }
%class.GrowableArrayView.14 = type { %class.GrowableArrayBase, ptr }
%"class.VLoopDependencyGraph::PredsIterator" = type { ptr, ptr, ptr, ptr, i32, i32, i32, i32 }
%"class.VLoopDependencyGraph::DependencyNode" = type { ptr, i32, ptr }

; Function Attrs: mustprogress nounwind uwtable
define linkonce_odr hidden noundef nonnull align 8 dereferenceable(8) ptr @_ZNK17GrowableArrayViewIP4NodeE2atEi(ptr noundef nonnull align 8 dereferenceable(16) %0, i32 noundef %1) #1 comdat align 2 {
  %3 = alloca ptr, align 8
  %4 = alloca i32, align 4
  store ptr %0, ptr %3, align 8
  store i32 %1, ptr %4, align 4
  %5 = load ptr, ptr %3, align 8
  %6 = getelementptr inbounds %class.GrowableArrayView.5, ptr %5, i32 0, i32 1
  %7 = load ptr, ptr %6, align 8
  %8 = load i32, ptr %4, align 4
  %9 = sext i32 %8 to i64
  %10 = getelementptr inbounds ptr, ptr %7, i64 %9
  ret ptr %10
}

; Function Attrs: mustprogress nounwind uwtable
define linkonce_odr hidden noundef nonnull align 8 dereferenceable(24) ptr @_ZNK9VLoopBody4bodyEv(ptr noundef nonnull align 8 dereferenceable(40) %0) #1 comdat align 2 {
  %2 = alloca ptr, align 8
  store ptr %0, ptr %2, align 8
  %3 = load ptr, ptr %2, align 8
  %4 = getelementptr inbounds %class.VLoopBody, ptr %3, i32 0, i32 1
  ret ptr %4
}

; Function Attrs: mustprogress nounwind uwtable
define linkonce_odr hidden noundef i32 @_ZNK20VLoopDependencyGraph14DependencyNode16memory_pred_edgeEj(ptr noundef nonnull align 8 dereferenceable(24) %0, i32 noundef %1) #1 comdat align 2 {
  %3 = alloca ptr, align 8
  %4 = alloca i32, align 4
  store ptr %0, ptr %3, align 8
  store i32 %1, ptr %4, align 4
  %5 = load ptr, ptr %3, align 8
  %6 = getelementptr inbounds %"class.VLoopDependencyGraph::DependencyNode", ptr %5, i32 0, i32 2
  %7 = load ptr, ptr %6, align 8
  %8 = load i32, ptr %4, align 4
  %9 = zext i32 %8 to i64
  %10 = getelementptr inbounds i32, ptr %7, i64 %9
  %11 = load i32, ptr %10, align 4
  ret i32 %11
}

; Function Attrs: mustprogress nounwind uwtable
define linkonce_odr hidden noundef ptr @_ZNK4Node2inEj(ptr noundef nonnull align 8 dereferenceable(52) %0, i32 noundef %1) #1 comdat align 2 {
  %3 = alloca ptr, align 8
  %4 = alloca i32, align 4
  store ptr %0, ptr %3, align 8
  store i32 %1, ptr %4, align 4
  %5 = load ptr, ptr %3, align 8
  %6 = getelementptr inbounds %class.Node, ptr %5, i32 0, i32 1
  %7 = load ptr, ptr %6, align 8
  %8 = load i32, ptr %4, align 4
  %9 = zext i32 %8 to i64
  %10 = getelementptr inbounds ptr, ptr %7, i64 %9
  %11 = load ptr, ptr %10, align 8
  ret ptr %11
}

; Function Attrs: mustprogress nounwind uwtable
define hidden void @_ZN20VLoopDependencyGraph13PredsIterator4nextEv(ptr noundef nonnull align 8 dereferenceable(48) %0) #1 align 2 {
  %2 = alloca ptr, align 8
  %3 = alloca i32, align 4
  store ptr %0, ptr %2, align 8
  %4 = load ptr, ptr %2, align 8
  %5 = getelementptr inbounds %"class.VLoopDependencyGraph::PredsIterator", ptr %4, i32 0, i32 4
  %6 = load i32, ptr %5, align 8
  %7 = getelementptr inbounds %"class.VLoopDependencyGraph::PredsIterator", ptr %4, i32 0, i32 5
  %8 = load i32, ptr %7, align 4
  %9 = icmp slt i32 %6, %8
  br i1 %9, label %10, label %18

10:                                               ; preds = %1
  %11 = getelementptr inbounds %"class.VLoopDependencyGraph::PredsIterator", ptr %4, i32 0, i32 1
  %12 = load ptr, ptr %11, align 8
  %13 = getelementptr inbounds %"class.VLoopDependencyGraph::PredsIterator", ptr %4, i32 0, i32 4
  %14 = load i32, ptr %13, align 8
  %15 = add nsw i32 %14, 1
  store i32 %15, ptr %13, align 8
  %16 = call noundef ptr @_ZNK4Node2inEj(ptr noundef nonnull align 8 dereferenceable(52) %12, i32 noundef %14)
  %17 = getelementptr inbounds %"class.VLoopDependencyGraph::PredsIterator", ptr %4, i32 0, i32 3
  store ptr %16, ptr %17, align 8
  br label %43

18:                                               ; preds = %1
  %19 = getelementptr inbounds %"class.VLoopDependencyGraph::PredsIterator", ptr %4, i32 0, i32 6
  %20 = load i32, ptr %19, align 8
  %21 = getelementptr inbounds %"class.VLoopDependencyGraph::PredsIterator", ptr %4, i32 0, i32 7
  %22 = load i32, ptr %21, align 4
  %23 = icmp slt i32 %20, %22
  br i1 %23, label %24, label %40

24:                                               ; preds = %18
  %25 = getelementptr inbounds %"class.VLoopDependencyGraph::PredsIterator", ptr %4, i32 0, i32 2
  %26 = load ptr, ptr %25, align 8
  %27 = getelementptr inbounds %"class.VLoopDependencyGraph::PredsIterator", ptr %4, i32 0, i32 6
  %28 = load i32, ptr %27, align 8
  %29 = add nsw i32 %28, 1
  store i32 %29, ptr %27, align 8
  %30 = call noundef i32 @_ZNK20VLoopDependencyGraph14DependencyNode16memory_pred_edgeEj(ptr noundef nonnull align 8 dereferenceable(24) %26, i32 noundef %28)
  store i32 %30, ptr %3, align 4
  %31 = getelementptr inbounds %"class.VLoopDependencyGraph::PredsIterator", ptr %4, i32 0, i32 0
  %32 = load ptr, ptr %31, align 8
  %33 = getelementptr inbounds %class.VLoopDependencyGraph, ptr %32, i32 0, i32 2
  %34 = load ptr, ptr %33, align 8
  %35 = call noundef nonnull align 8 dereferenceable(24) ptr @_ZNK9VLoopBody4bodyEv(ptr noundef nonnull align 8 dereferenceable(40) %34)
  %36 = load i32, ptr %3, align 4
  %37 = call noundef nonnull align 8 dereferenceable(8) ptr @_ZNK17GrowableArrayViewIP4NodeE2atEi(ptr noundef nonnull align 8 dereferenceable(16) %35, i32 noundef %36)
  %38 = load ptr, ptr %37, align 8
  %39 = getelementptr inbounds %"class.VLoopDependencyGraph::PredsIterator", ptr %4, i32 0, i32 3
  store ptr %38, ptr %39, align 8
  br label %42

40:                                               ; preds = %18
  %41 = getelementptr inbounds %"class.VLoopDependencyGraph::PredsIterator", ptr %4, i32 0, i32 3
  store ptr null, ptr %41, align 8
  br label %42

42:                                               ; preds = %40, %24
  br label %43

43:                                               ; preds = %42, %10
  ret void
}