; Function Attrs: mustprogress nofree norecurse nosync nounwind willreturn memory(read, argmem: readwrite, inaccessiblemem: none) uwtable
define hidden void @_ZN20VLoopDependencyGraph13PredsIterator4nextEv(ptr nocapture noundef nonnull align 8 dereferenceable(48) %0) local_unnamed_addr #6 align 2 {
  %2 = getelementptr inbounds i8, ptr %0, i64 32
  %3 = load i32, ptr %2, align 8
  %4 = getelementptr inbounds i8, ptr %0, i64 36
  %5 = load i32, ptr %4, align 4
  %6 = icmp slt i32 %3, %5
  br i1 %6, label %7, label %15

7:                                                ; preds = %1
  %8 = getelementptr inbounds i8, ptr %0, i64 8
  %9 = load ptr, ptr %8, align 8
  %10 = add nsw i32 %3, 1
  store i32 %10, ptr %2, align 8
  %11 = getelementptr inbounds i8, ptr %9, i64 8
  %12 = load ptr, ptr %11, align 8
  %13 = zext i32 %3 to i64
  %14 = getelementptr inbounds ptr, ptr %12, i64 %13
  br label %.sink.split

15:                                               ; preds = %1
  %16 = getelementptr inbounds i8, ptr %0, i64 40
  %17 = load i32, ptr %16, align 8
  %18 = getelementptr inbounds i8, ptr %0, i64 44
  %19 = load i32, ptr %18, align 4
  %20 = icmp slt i32 %17, %19
  br i1 %20, label %21, label %38

21:                                               ; preds = %15
  %22 = getelementptr inbounds i8, ptr %0, i64 16
  %23 = load ptr, ptr %22, align 8
  %24 = add nsw i32 %17, 1
  store i32 %24, ptr %16, align 8
  %25 = getelementptr inbounds i8, ptr %23, i64 16
  %26 = load ptr, ptr %25, align 8
  %27 = zext i32 %17 to i64
  %28 = getelementptr inbounds i32, ptr %26, i64 %27
  %29 = load i32, ptr %28, align 4
  %30 = load ptr, ptr %0, align 8
  %31 = getelementptr inbounds i8, ptr %30, i64 16
  %32 = load ptr, ptr %31, align 8
  %33 = getelementptr inbounds i8, ptr %32, i64 16
  %34 = load ptr, ptr %33, align 8
  %35 = sext i32 %29 to i64
  %36 = getelementptr inbounds ptr, ptr %34, i64 %35
  br label %.sink.split

.sink.split:                                      ; preds = %7, %21
  %.sink3 = phi ptr [ %36, %21 ], [ %14, %7 ]
  %37 = load ptr, ptr %.sink3, align 8
  br label %38

38:                                               ; preds = %.sink.split, %15
  %.sink = phi ptr [ null, %15 ], [ %37, %.sink.split ]
  %39 = getelementptr inbounds i8, ptr %0, i64 24
  store ptr %.sink, ptr %39, align 8
  ret void
}